target datalayout = "e-m:e-p270:32:32-p271:32:32-p272:64:64-i64:64-i128:128-f80:128-n8:16:32:64-S128"
target triple = "x86_64-pc-linux-gnu"

%"class.Assimp::BaseProcess" = type { ptr, ptr, ptr }
%"class.Assimp::ImporterPimpl" = type { ptr, i8, ptr, i8, %"class.std::vector", %"class.std::vector.0", ptr, %"class.std::__cxx11::basic_string", %"class.std::__exception_ptr::exception_ptr", %"class.std::map", %"class.std::map.11", %"class.std::map.16", %"class.std::map.21", %"class.std::map.26", i8, ptr }
%"class.std::vector" = type { %"struct.std::_Vector_base" }
%"struct.std::_Vector_base" = type { %"struct.std::_Vector_base<Assimp::BaseImporter *, std::allocator<Assimp::BaseImporter *>>::_Vector_impl" }
%"struct.std::_Vector_base<Assimp::BaseImporter *, std::allocator<Assimp::BaseImporter *>>::_Vector_impl" = type { %"struct.std::_Vector_base<Assimp::BaseImporter *, std::allocator<Assimp::BaseImporter *>>::_Vector_impl_data" }
%"struct.std::_Vector_base<Assimp::BaseImporter *, std::allocator<Assimp::BaseImporter *>>::_Vector_impl_data" = type { ptr, ptr, ptr }
%"class.std::vector.0" = type { %"struct.std::_Vector_base.1" }
%"struct.std::_Vector_base.1" = type { %"struct.std::_Vector_base<Assimp::BaseProcess *, std::allocator<Assimp::BaseProcess *>>::_Vector_impl" }
%"struct.std::_Vector_base<Assimp::BaseProcess *, std::allocator<Assimp::BaseProcess *>>::_Vector_impl" = type { %"struct.std::_Vector_base<Assimp::BaseProcess *, std::allocator<Assimp::BaseProcess *>>::_Vector_impl_data" }
%"struct.std::_Vector_base<Assimp::BaseProcess *, std::allocator<Assimp::BaseProcess *>>::_Vector_impl_data" = type { ptr, ptr, ptr }
%"class.std::__cxx11::basic_string" = type { %"struct.std::__cxx11::basic_string<char>::_Alloc_hider", i64, %union.anon }
%"struct.std::__cxx11::basic_string<char>::_Alloc_hider" = type { ptr }
%union.anon = type { i64, [8 x i8] }
%"class.std::__exception_ptr::exception_ptr" = type { ptr }
%"class.std::map" = type { %"class.std::_Rb_tree" }
%"class.std::_Rb_tree" = type { %"struct.std::_Rb_tree<unsigned int, std::pair<const unsigned int, int>, std::_Select1st<std::pair<const unsigned int, int>>, std::less<unsigned int>>::_Rb_tree_impl" }
%"struct.std::_Rb_tree<unsigned int, std::pair<const unsigned int, int>, std::_Select1st<std::pair<const unsigned int, int>>, std::less<unsigned int>>::_Rb_tree_impl" = type { [8 x i8], %"struct.std::_Rb_tree_header" }
%"struct.std::_Rb_tree_header" = type { %"struct.std::_Rb_tree_node_base", i64 }
%"struct.std::_Rb_tree_node_base" = type { i32, ptr, ptr, ptr }
%"class.std::map.11" = type { %"class.std::_Rb_tree.12" }
%"class.std::_Rb_tree.12" = type { %"struct.std::_Rb_tree<unsigned int, std::pair<const unsigned int, float>, std::_Select1st<std::pair<const unsigned int, float>>, std::less<unsigned int>>::_Rb_tree_impl" }
%"struct.std::_Rb_tree<unsigned int, std::pair<const unsigned int, float>, std::_Select1st<std::pair<const unsigned int, float>>, std::less<unsigned int>>::_Rb_tree_impl" = type { [8 x i8], %"struct.std::_Rb_tree_header" }
%"class.std::map.16" = type { %"class.std::_Rb_tree.17" }
%"class.std::_Rb_tree.17" = type { %"struct.std::_Rb_tree<unsigned int, std::pair<const unsigned int, std::__cxx11::basic_string<char>>, std::_Select1st<std::pair<const unsigned int, std::__cxx11::basic_string<char>>>, std::less<unsigned int>>::_Rb_tree_impl" }
%"struct.std::_Rb_tree<unsigned int, std::pair<const unsigned int, std::__cxx11::basic_string<char>>, std::_Select1st<std::pair<const unsigned int, std::__cxx11::basic_string<char>>>, std::less<unsigned int>>::_Rb_tree_impl" = type { [8 x i8], %"struct.std::_Rb_tree_header" }
%"class.std::map.21" = type { %"class.std::_Rb_tree.22" }
%"class.std::_Rb_tree.22" = type { %"struct.std::_Rb_tree<unsigned int, std::pair<const unsigned int, aiMatrix4x4t<float>>, std::_Select1st<std::pair<const unsigned int, aiMatrix4x4t<float>>>, std::less<unsigned int>>::_Rb_tree_impl" }
%"struct.std::_Rb_tree<unsigned int, std::pair<const unsigned int, aiMatrix4x4t<float>>, std::_Select1st<std::pair<const unsigned int, aiMatrix4x4t<float>>>, std::less<unsigned int>>::_Rb_tree_impl" = type { [8 x i8], %"struct.std::_Rb_tree_header" }
%"class.std::map.26" = type { %"class.std::_Rb_tree.27" }
%"class.std::_Rb_tree.27" = type { %"struct.std::_Rb_tree<unsigned int, std::pair<const unsigned int, void *>, std::_Select1st<std::pair<const unsigned int, void *>>, std::less<unsigned int>>::_Rb_tree_impl" }
%"struct.std::_Rb_tree<unsigned int, std::pair<const unsigned int, void *>, std::_Select1st<std::pair<const unsigned int, void *>>, std::less<unsigned int>>::_Rb_tree_impl" = type { [8 x i8], %"struct.std::_Rb_tree_header" }
%"class.Assimp::Importer" = type { ptr }

@_ZTISt9exception = external constant ptr

; Function Attrs: mustprogress nounwind uwtable
define linkonce_odr noundef ptr @_ZN6Assimp8Importer5PimplEv(ptr noundef nonnull align 8 dereferenceable(8) %0) #1 comdat align 2 {
  %2 = alloca ptr, align 8
  store ptr %0, ptr %2, align 8
  %3 = load ptr, ptr %2, align 8
  %4 = getelementptr inbounds nuw %"class.Assimp::Importer", ptr %3, i32 0, i32 0
  %5 = load ptr, ptr %4, align 8
  ret ptr %5
}

; Function Attrs: mustprogress uwtable
define void @_ZN6Assimp11BaseProcess14ExecuteOnSceneEPNS_8ImporterE(ptr noundef nonnull align 8 dereferenceable(24) %0, ptr noundef %1) #2 align 2 personality ptr @__gxx_personality_v0 {
  %3 = alloca ptr, align 8
  %4 = alloca ptr, align 8
  %5 = alloca ptr, align 8
  %6 = alloca i32, align 4
  %7 = alloca ptr, align 8
  store ptr %0, ptr %3, align 8
  store ptr %1, ptr %4, align 8
  %8 = load ptr, ptr %3, align 8
  %9 = load ptr, ptr %4, align 8
  %10 = icmp eq ptr %9, null
  br i1 %10, label %11, label %12

11:                                               ; preds = %2
  br label %82

12:                                               ; preds = %2
  %13 = load ptr, ptr %4, align 8
  %14 = call noundef ptr @_ZN6Assimp8Importer5PimplEv(ptr noundef nonnull align 8 dereferenceable(8) %13)
  %15 = getelementptr inbounds nuw %"class.Assimp::ImporterPimpl", ptr %14, i32 0, i32 6
  %16 = load ptr, ptr %15, align 8
  %17 = icmp eq ptr %16, null
  br i1 %17, label %18, label %19

18:                                               ; preds = %12
  br label %82

19:                                               ; preds = %12
  %20 = load ptr, ptr %4, align 8
  %21 = call noundef ptr @_ZNK6Assimp8Importer18GetProgressHandlerEv(ptr noundef nonnull align 8 dereferenceable(8) %20)
  %22 = getelementptr inbounds nuw %"class.Assimp::BaseProcess", ptr %8, i32 0, i32 2
  store ptr %21, ptr %22, align 8
  %23 = getelementptr inbounds nuw %"class.Assimp::BaseProcess", ptr %8, i32 0, i32 2
  %24 = load ptr, ptr %23, align 8
  %25 = icmp eq ptr %24, null
  br i1 %25, label %26, label %27

26:                                               ; preds = %19
  br label %82

27:                                               ; preds = %19
  %28 = load ptr, ptr %4, align 8
  %29 = load ptr, ptr %8, align 8
  %30 = getelementptr inbounds ptr, ptr %29, i64 4
  %31 = load ptr, ptr %30, align 8
  call void %31(ptr noundef nonnull align 8 dereferenceable(24) %8, ptr noundef %28)
  %32 = load ptr, ptr %4, align 8
  %33 = invoke noundef ptr @_ZN6Assimp8Importer5PimplEv(ptr noundef nonnull align 8 dereferenceable(8) %32)
          to label %34 unwind label %41

34:                                               ; preds = %27
  %35 = getelementptr inbounds nuw %"class.Assimp::ImporterPimpl", ptr %33, i32 0, i32 6
  %36 = load ptr, ptr %35, align 8
  %37 = load ptr, ptr %8, align 8
  %38 = getelementptr inbounds ptr, ptr %37, i64 5
  %39 = load ptr, ptr %38, align 8
  invoke void %39(ptr noundef nonnull align 8 dereferenceable(24) %8, ptr noundef %36)
          to label %40 unwind label %41

40:                                               ; preds = %34
  br label %82

41:                                               ; preds = %34, %27
  %42 = landingpad { ptr, i32 }
          catch ptr @_ZTISt9exception
  %43 = extractvalue { ptr, i32 } %42, 0
  store ptr %43, ptr %5, align 8
  %44 = extractvalue { ptr, i32 } %42, 1
  store i32 %44, ptr %6, align 4
  br label %45

45:                                               ; preds = %41
  %46 = load i32, ptr %6, align 4
  %47 = call i32 @llvm.eh.typeid.for.p0(ptr @_ZTISt9exception) #13
  %48 = icmp eq i32 %46, %47
  br i1 %48, label %49, label %88

49:                                               ; preds = %45
  call void @llvm.lifetime.start.p0(i64 8, ptr %7) #13
  %50 = load ptr, ptr %5, align 8
  %51 = call ptr @__cxa_begin_catch(ptr %50) #13
  store ptr %51, ptr %7, align 8
  %52 = load ptr, ptr %7, align 8
  %53 = load ptr, ptr %52, align 8
  %54 = getelementptr inbounds ptr, ptr %53, i64 2
  %55 = load ptr, ptr %54, align 8
  %56 = call noundef ptr %55(ptr noundef nonnull align 8 dereferenceable(8) %52) #13
  %57 = load ptr, ptr %4, align 8
  %58 = invoke noundef ptr @_ZN6Assimp8Importer5PimplEv(ptr noundef nonnull align 8 dereferenceable(8) %57)
          to label %59 unwind label %83

59:                                               ; preds = %49
  %60 = getelementptr inbounds nuw %"class.Assimp::ImporterPimpl", ptr %58, i32 0, i32 7
  %61 = invoke noundef nonnull align 8 dereferenceable(32) ptr @_ZNSt7__cxx1112basic_stringIcSt11char_traitsIcESaIcEEaSEPKc(ptr noundef nonnull align 8 dereferenceable(32) %60, ptr noundef %56)
          to label %62 unwind label %83

62:                                               ; preds = %59
  %63 = invoke noundef ptr @_ZN6Assimp13DefaultLogger3getEv()
          to label %64 unwind label %83

64:                                               ; preds = %62
  %65 = load ptr, ptr %4, align 8
  %66 = invoke noundef ptr @_ZN6Assimp8Importer5PimplEv(ptr noundef nonnull align 8 dereferenceable(8) %65)
          to label %67 unwind label %83

67:                                               ; preds = %64
  %68 = getelementptr inbounds nuw %"class.Assimp::ImporterPimpl", ptr %66, i32 0, i32 7
  invoke void @_ZN6Assimp6Logger5errorIJRNSt7__cxx1112basic_stringIcSt11char_traitsIcESaIcEEEEEEvDpOT_(ptr noundef nonnull align 8 dereferenceable(12) %63, ptr noundef nonnull align 8 dereferenceable(32) %68)
          to label %69 unwind label %83

69:                                               ; preds = %67
  %70 = load ptr, ptr %4, align 8
  %71 = invoke noundef ptr @_ZN6Assimp8Importer5PimplEv(ptr noundef nonnull align 8 dereferenceable(8) %70)
          to label %72 unwind label %83

72:                                               ; preds = %69
  %73 = getelementptr inbounds nuw %"class.Assimp::ImporterPimpl", ptr %71, i32 0, i32 6
  %74 = load ptr, ptr %73, align 8
  %75 = icmp eq ptr %74, null
  br i1 %75, label %77, label %76

76:                                               ; preds = %72
  call void @_ZN7aiSceneD1Ev(ptr noundef nonnull align 8 dereferenceable(1168) %74) #13
  call void @_ZdlPvm(ptr noundef %74, i64 noundef 1168) #14
  br label %77

77:                                               ; preds = %76, %72
  %78 = load ptr, ptr %4, align 8
  %79 = invoke noundef ptr @_ZN6Assimp8Importer5PimplEv(ptr noundef nonnull align 8 dereferenceable(8) %78)
          to label %80 unwind label %83

80:                                               ; preds = %77
  %81 = getelementptr inbounds nuw %"class.Assimp::ImporterPimpl", ptr %79, i32 0, i32 6
  store ptr null, ptr %81, align 8
  call void @__cxa_end_catch()
  call void @llvm.lifetime.end.p0(i64 8, ptr %7) #13
  br label %82

82:                                               ; preds = %11, %18, %26, %80, %40
  ret void

83:                                               ; preds = %77, %69, %67, %64, %62, %59, %49
  %84 = landingpad { ptr, i32 }
          cleanup
  %85 = extractvalue { ptr, i32 } %84, 0
  store ptr %85, ptr %5, align 8
  %86 = extractvalue { ptr, i32 } %84, 1
  store i32 %86, ptr %6, align 4
  invoke void @__cxa_end_catch()
          to label %87 unwind label %93

87:                                               ; preds = %83
  call void @llvm.lifetime.end.p0(i64 8, ptr %7) #13
  br label %88

88:                                               ; preds = %87, %45
  %89 = load ptr, ptr %5, align 8
  %90 = load i32, ptr %6, align 4
  %91 = insertvalue { ptr, i32 } poison, ptr %89, 0
  %92 = insertvalue { ptr, i32 } %91, i32 %90, 1
  resume { ptr, i32 } %92

93:                                               ; preds = %83
  %94 = landingpad { ptr, i32 }
          catch ptr null
  %95 = extractvalue { ptr, i32 } %94, 0
  call void @__clang_call_terminate(ptr %95) #15
  unreachable
}