; Function Attrs: mustprogress uwtable
define void @_ZN6Assimp11BaseProcess14ExecuteOnSceneEPNS_8ImporterE(ptr noundef nonnull align 8 dereferenceable(24) %0, ptr noundef %1) local_unnamed_addr #2 align 2 personality ptr @__gxx_personality_v0 {
  %3 = icmp eq ptr %1, null
  br i1 %3, label %52, label %4

4:                                                ; preds = %2
  %5 = load ptr, ptr %1, align 8
  %6 = getelementptr inbounds nuw i8, ptr %5, i64 80
  %7 = load ptr, ptr %6, align 8
  %8 = icmp eq ptr %7, null
  br i1 %8, label %52, label %9

9:                                                ; preds = %4
  %10 = tail call noundef ptr @_ZNK6Assimp8Importer18GetProgressHandlerEv(ptr noundef nonnull align 8 dereferenceable(8) %1)
  %11 = getelementptr inbounds nuw i8, ptr %0, i64 16
  store ptr %10, ptr %11, align 8
  %12 = icmp eq ptr %10, null
  br i1 %12, label %52, label %13

13:                                               ; preds = %9
  %14 = load ptr, ptr %0, align 8
  %15 = getelementptr inbounds nuw i8, ptr %14, i64 32
  %16 = load ptr, ptr %15, align 8
  tail call void %16(ptr noundef nonnull align 8 dereferenceable(24) %0, ptr noundef nonnull %1)
  %17 = load ptr, ptr %1, align 8
  %18 = getelementptr inbounds nuw i8, ptr %17, i64 80
  %19 = load ptr, ptr %18, align 8
  %20 = load ptr, ptr %0, align 8
  %21 = getelementptr inbounds nuw i8, ptr %20, i64 40
  %22 = load ptr, ptr %21, align 8
  invoke void %22(ptr noundef nonnull align 8 dereferenceable(24) %0, ptr noundef %19)
          to label %52 unwind label %23

23:                                               ; preds = %13
  %24 = landingpad { ptr, i32 }
          catch ptr @_ZTISt9exception
  %25 = extractvalue { ptr, i32 } %24, 1
  %26 = tail call i32 @llvm.eh.typeid.for.p0(ptr nonnull @_ZTISt9exception) #16
  %27 = icmp eq i32 %25, %26
  br i1 %27, label %28, label %55

28:                                               ; preds = %23
  %29 = extractvalue { ptr, i32 } %24, 0
  %30 = tail call ptr @__cxa_begin_catch(ptr %29) #16
  %31 = load ptr, ptr %30, align 8
  %32 = getelementptr inbounds nuw i8, ptr %31, i64 16
  %33 = load ptr, ptr %32, align 8
  %34 = tail call noundef ptr %33(ptr noundef nonnull align 8 dereferenceable(8) %30) #16
  %35 = load ptr, ptr %1, align 8
  %36 = getelementptr inbounds nuw i8, ptr %35, i64 88
  %37 = invoke noundef nonnull align 8 dereferenceable(32) ptr @_ZNSt7__cxx1112basic_stringIcSt11char_traitsIcESaIcEEaSEPKc(ptr noundef nonnull align 8 dereferenceable(32) %36, ptr noundef %34)
          to label %38 unwind label %53

38:                                               ; preds = %28
  %39 = invoke noundef ptr @_ZN6Assimp13DefaultLogger3getEv()
          to label %40 unwind label %53

40:                                               ; preds = %38
  %41 = load ptr, ptr %1, align 8
  %42 = getelementptr inbounds nuw i8, ptr %41, i64 88
  invoke void @_ZN6Assimp6Logger5errorIJRNSt7__cxx1112basic_stringIcSt11char_traitsIcESaIcEEEEEEvDpOT_(ptr noundef nonnull align 8 dereferenceable(12) %39, ptr noundef nonnull align 8 dereferenceable(32) %42)
          to label %43 unwind label %53

43:                                               ; preds = %40
  %44 = load ptr, ptr %1, align 8
  %45 = getelementptr inbounds nuw i8, ptr %44, i64 80
  %46 = load ptr, ptr %45, align 8
  %47 = icmp eq ptr %46, null
  br i1 %47, label %49, label %48

48:                                               ; preds = %43
  tail call void @_ZN7aiSceneD1Ev(ptr noundef nonnull align 8 dereferenceable(1168) %46) #16
  tail call void @_ZdlPvm(ptr noundef nonnull %46, i64 noundef 1168) #17
  %.pre = load ptr, ptr %1, align 8
  br label %49

49:                                               ; preds = %48, %43
  %50 = phi ptr [ %.pre, %48 ], [ %44, %43 ]
  %51 = getelementptr inbounds nuw i8, ptr %50, i64 80
  store ptr null, ptr %51, align 8
  tail call void @__cxa_end_catch()
  br label %52

52:                                               ; preds = %13, %9, %4, %2, %49
  ret void

53:                                               ; preds = %40, %38, %28
  %54 = landingpad { ptr, i32 }
          cleanup
  invoke void @__cxa_end_catch()
          to label %55 unwind label %56

55:                                               ; preds = %53, %23
  %.merged = phi { ptr, i32 } [ %24, %23 ], [ %54, %53 ]
  resume { ptr, i32 } %.merged

56:                                               ; preds = %53
  %57 = landingpad { ptr, i32 }
          catch ptr null
  %58 = extractvalue { ptr, i32 } %57, 0
  tail call void @__clang_call_terminate(ptr %58) #18
  unreachable
}